target datalayout = "e-m:e-p270:32:32-p271:32:32-p272:64:64-i64:64-i128:128-f80:128-n8:16:32:64-S128"
target triple = "x86_64-pc-linux-gnu"

@.str.1 = private unnamed_addr constant [14 x i8] c"epan/tvbuff.c\00", align 1
@.str.9 = private unnamed_addr constant [55 x i8] c"%s:%u: failed assertion \22DISSECTOR_ASSERT_NOT_REACHED\22\00", align 1
@.str.27 = private unnamed_addr constant [1 x i8] zeroinitializer, align 1
@__func__.tvb_get_varint = private unnamed_addr constant [15 x i8] c"tvb_get_varint\00", align 1
@.str.29 = private unnamed_addr constant [31 x i8] c"assertion \22not reached\22 failed\00", align 1

; Function Attrs: inlinehint nounwind null_pointer_is_valid sspstrong uwtable
define internal i64 @pntoh64(ptr noundef %0) #7 {
  %2 = alloca ptr, align 8
  store ptr %0, ptr %2, align 8
  %3 = load ptr, ptr %2, align 8
  %4 = getelementptr i8, ptr %3, i64 0
  %5 = load i8, ptr %4, align 1
  %6 = zext i8 %5 to i64
  %7 = shl i64 %6, 56
  %8 = load ptr, ptr %2, align 8
  %9 = getelementptr i8, ptr %8, i64 1
  %10 = load i8, ptr %9, align 1
  %11 = zext i8 %10 to i64
  %12 = shl i64 %11, 48
  %13 = or i64 %7, %12
  %14 = load ptr, ptr %2, align 8
  %15 = getelementptr i8, ptr %14, i64 2
  %16 = load i8, ptr %15, align 1
  %17 = zext i8 %16 to i64
  %18 = shl i64 %17, 40
  %19 = or i64 %13, %18
  %20 = load ptr, ptr %2, align 8
  %21 = getelementptr i8, ptr %20, i64 3
  %22 = load i8, ptr %21, align 1
  %23 = zext i8 %22 to i64
  %24 = shl i64 %23, 32
  %25 = or i64 %19, %24
  %26 = load ptr, ptr %2, align 8
  %27 = getelementptr i8, ptr %26, i64 4
  %28 = load i8, ptr %27, align 1
  %29 = zext i8 %28 to i64
  %30 = shl i64 %29, 24
  %31 = or i64 %25, %30
  %32 = load ptr, ptr %2, align 8
  %33 = getelementptr i8, ptr %32, i64 5
  %34 = load i8, ptr %33, align 1
  %35 = zext i8 %34 to i64
  %36 = shl i64 %35, 16
  %37 = or i64 %31, %36
  %38 = load ptr, ptr %2, align 8
  %39 = getelementptr i8, ptr %38, i64 6
  %40 = load i8, ptr %39, align 1
  %41 = zext i8 %40 to i64
  %42 = shl i64 %41, 8
  %43 = or i64 %37, %42
  %44 = load ptr, ptr %2, align 8
  %45 = getelementptr i8, ptr %44, i64 7
  %46 = load i8, ptr %45, align 1
  %47 = zext i8 %46 to i64
  %48 = shl i64 %47, 0
  %49 = or i64 %43, %48
  ret i64 %49
}

; Function Attrs: inlinehint nounwind null_pointer_is_valid sspstrong uwtable
define internal i32 @pntoh32(ptr noundef %0) #7 {
  %2 = alloca ptr, align 8
  store ptr %0, ptr %2, align 8
  %3 = load ptr, ptr %2, align 8
  %4 = getelementptr i8, ptr %3, i64 0
  %5 = load i8, ptr %4, align 1
  %6 = zext i8 %5 to i32
  %7 = shl i32 %6, 24
  %8 = load ptr, ptr %2, align 8
  %9 = getelementptr i8, ptr %8, i64 1
  %10 = load i8, ptr %9, align 1
  %11 = zext i8 %10 to i32
  %12 = shl i32 %11, 16
  %13 = or i32 %7, %12
  %14 = load ptr, ptr %2, align 8
  %15 = getelementptr i8, ptr %14, i64 2
  %16 = load i8, ptr %15, align 1
  %17 = zext i8 %16 to i32
  %18 = shl i32 %17, 8
  %19 = or i32 %13, %18
  %20 = load ptr, ptr %2, align 8
  %21 = getelementptr i8, ptr %20, i64 3
  %22 = load i8, ptr %21, align 1
  %23 = zext i8 %22 to i32
  %24 = shl i32 %23, 0
  %25 = or i32 %19, %24
  ret i32 %25
}

; Function Attrs: inlinehint nounwind null_pointer_is_valid sspstrong uwtable
define internal zeroext i16 @pntoh16(ptr noundef %0) #7 {
  %2 = alloca ptr, align 8
  store ptr %0, ptr %2, align 8
  %3 = load ptr, ptr %2, align 8
  %4 = getelementptr i8, ptr %3, i64 0
  %5 = load i8, ptr %4, align 1
  %6 = zext i8 %5 to i16
  %7 = zext i16 %6 to i32
  %8 = shl i32 %7, 8
  %9 = load ptr, ptr %2, align 8
  %10 = getelementptr i8, ptr %9, i64 1
  %11 = load i8, ptr %10, align 1
  %12 = zext i8 %11 to i16
  %13 = zext i16 %12 to i32
  %14 = shl i32 %13, 0
  %15 = or i32 %8, %14
  %16 = trunc i32 %15 to i16
  ret i16 %16
}

; Function Attrs: null_pointer_is_valid sspstrong uwtable
define i64 @tvb_get_ntoh64(ptr noundef %0, i32 noundef %1) #0 {
  %3 = alloca ptr, align 8
  %4 = alloca i32, align 4
  %5 = alloca ptr, align 8
  store ptr %0, ptr %3, align 8
  store i32 %1, ptr %4, align 4
  call void @llvm.lifetime.start.p0(i64 8, ptr %5) #16
  %6 = load ptr, ptr %3, align 8
  %7 = load i32, ptr %4, align 4
  %8 = call ptr @fast_ensure_contiguous(ptr noundef %6, i32 noundef %7, i32 noundef 8)
  store ptr %8, ptr %5, align 8
  %9 = load ptr, ptr %5, align 8
  %10 = call i64 @pntoh64(ptr noundef %9)
  call void @llvm.lifetime.end.p0(i64 8, ptr %5) #16
  ret i64 %10
}

; Function Attrs: null_pointer_is_valid sspstrong uwtable
define i32 @tvb_get_ntohl(ptr noundef %0, i32 noundef %1) #0 {
  %3 = alloca ptr, align 8
  %4 = alloca i32, align 4
  %5 = alloca ptr, align 8
  store ptr %0, ptr %3, align 8
  store i32 %1, ptr %4, align 4
  call void @llvm.lifetime.start.p0(i64 8, ptr %5) #16
  %6 = load ptr, ptr %3, align 8
  %7 = load i32, ptr %4, align 4
  %8 = call ptr @fast_ensure_contiguous(ptr noundef %6, i32 noundef %7, i32 noundef 4)
  store ptr %8, ptr %5, align 8
  %9 = load ptr, ptr %5, align 8
  %10 = call i32 @pntoh32(ptr noundef %9)
  call void @llvm.lifetime.end.p0(i64 8, ptr %5) #16
  ret i32 %10
}

; Function Attrs: null_pointer_is_valid sspstrong uwtable
define zeroext i16 @tvb_get_ntohs(ptr noundef %0, i32 noundef %1) #0 {
  %3 = alloca ptr, align 8
  %4 = alloca i32, align 4
  %5 = alloca ptr, align 8
  store ptr %0, ptr %3, align 8
  store i32 %1, ptr %4, align 4
  call void @llvm.lifetime.start.p0(i64 8, ptr %5) #16
  %6 = load ptr, ptr %3, align 8
  %7 = load i32, ptr %4, align 4
  %8 = call ptr @fast_ensure_contiguous(ptr noundef %6, i32 noundef %7, i32 noundef 2)
  store ptr %8, ptr %5, align 8
  %9 = load ptr, ptr %5, align 8
  %10 = call zeroext i16 @pntoh16(ptr noundef %9)
  call void @llvm.lifetime.end.p0(i64 8, ptr %5) #16
  ret i16 %10
}

; Function Attrs: null_pointer_is_valid sspstrong uwtable
define zeroext i8 @tvb_get_uint8(ptr noundef %0, i32 noundef %1) #0 {
  %3 = alloca ptr, align 8
  %4 = alloca i32, align 4
  %5 = alloca ptr, align 8
  store ptr %0, ptr %3, align 8
  store i32 %1, ptr %4, align 4
  call void @llvm.lifetime.start.p0(i64 8, ptr %5) #16
  %6 = load ptr, ptr %3, align 8
  %7 = load i32, ptr %4, align 4
  %8 = call ptr @fast_ensure_contiguous(ptr noundef %6, i32 noundef %7, i32 noundef 1)
  store ptr %8, ptr %5, align 8
  %9 = load ptr, ptr %5, align 8
  %10 = load i8, ptr %9, align 1
  call void @llvm.lifetime.end.p0(i64 8, ptr %5) #16
  ret i8 %10
}

; Function Attrs: null_pointer_is_valid sspstrong uwtable
define i32 @tvb_get_varint(ptr noundef %0, i32 noundef %1, i32 noundef %2, ptr noundef %3, i32 noundef %4) #0 {
  %6 = alloca i32, align 4
  %7 = alloca ptr, align 8
  %8 = alloca i32, align 4
  %9 = alloca i32, align 4
  %10 = alloca ptr, align 8
  %11 = alloca i32, align 4
  %12 = alloca i32, align 4
  %13 = alloca i64, align 8
  %14 = alloca i32, align 4
  %15 = alloca i32, align 4
  %16 = alloca i64, align 8
  %17 = alloca i32, align 4
  %18 = alloca i64, align 8
  store ptr %0, ptr %7, align 8
  store i32 %1, ptr %8, align 4
  store i32 %2, ptr %9, align 4
  store ptr %3, ptr %10, align 8
  store i32 %4, ptr %11, align 4
  %19 = load ptr, ptr %10, align 8
  store i64 0, ptr %19, align 8
  %20 = load i32, ptr %11, align 4
  %21 = and i32 %20, 30
  switch i32 %21, label %186 [
    i32 2, label %22
    i32 8, label %59
    i32 16, label %107
    i32 4, label %151
  ]

22:                                               ; preds = %5
  call void @llvm.lifetime.start.p0(i64 4, ptr %12) #16
  call void @llvm.lifetime.start.p0(i64 8, ptr %13) #16
  store i32 0, ptr %12, align 4
  br label %23

23:                                               ; preds = %53, %22
  %24 = load i32, ptr %12, align 4
  %25 = icmp ult i32 %24, 10
  br i1 %25, label %26, label %30

26:                                               ; preds = %23
  %27 = load i32, ptr %12, align 4
  %28 = load i32, ptr %9, align 4
  %29 = icmp ult i32 %27, %28
  br label %30

30:                                               ; preds = %26, %23
  %31 = phi i1 [ false, %23 ], [ %29, %26 ]
  br i1 %31, label %32, label %56

32:                                               ; preds = %30
  %33 = load ptr, ptr %7, align 8
  %34 = load i32, ptr %8, align 4
  %35 = add i32 %34, 1
  store i32 %35, ptr %8, align 4
  %36 = call zeroext i8 @tvb_get_uint8(ptr noundef %33, i32 noundef %34)
  %37 = zext i8 %36 to i64
  store i64 %37, ptr %13, align 8
  %38 = load i64, ptr %13, align 8
  %39 = and i64 %38, 127
  %40 = load i32, ptr %12, align 4
  %41 = mul i32 %40, 7
  %42 = zext i32 %41 to i64
  %43 = shl i64 %39, %42
  %44 = load ptr, ptr %10, align 8
  %45 = load i64, ptr %44, align 8
  %46 = or i64 %45, %43
  store i64 %46, ptr %44, align 8
  %47 = load i64, ptr %13, align 8
  %48 = icmp ult i64 %47, 128
  br i1 %48, label %49, label %52

49:                                               ; preds = %32
  %50 = load i32, ptr %12, align 4
  %51 = add i32 %50, 1
  store i32 %51, ptr %6, align 4
  store i32 1, ptr %14, align 4
  br label %57

52:                                               ; preds = %32
  br label %53

53:                                               ; preds = %52
  %54 = load i32, ptr %12, align 4
  %55 = add i32 %54, 1
  store i32 %55, ptr %12, align 4
  br label %23, !llvm.loop !34

56:                                               ; preds = %30
  store i32 2, ptr %14, align 4
  br label %57

57:                                               ; preds = %56, %49
  call void @llvm.lifetime.end.p0(i64 8, ptr %13) #16
  call void @llvm.lifetime.end.p0(i64 4, ptr %12) #16
  %58 = load i32, ptr %14, align 4
  switch i32 %58, label %190 [
    i32 1, label %188
    i32 2, label %187
  ]

59:                                               ; preds = %5
  call void @llvm.lifetime.start.p0(i64 4, ptr %15) #16
  call void @llvm.lifetime.start.p0(i64 8, ptr %16) #16
  store i32 0, ptr %15, align 4
  br label %60

60:                                               ; preds = %101, %59
  %61 = load i32, ptr %15, align 4
  %62 = icmp ult i32 %61, 10
  br i1 %62, label %63, label %67

63:                                               ; preds = %60
  %64 = load i32, ptr %15, align 4
  %65 = load i32, ptr %9, align 4
  %66 = icmp ult i32 %64, %65
  br label %67

67:                                               ; preds = %63, %60
  %68 = phi i1 [ false, %60 ], [ %66, %63 ]
  br i1 %68, label %69, label %104

69:                                               ; preds = %67
  %70 = load ptr, ptr %7, align 8
  %71 = load i32, ptr %8, align 4
  %72 = add i32 %71, 1
  store i32 %72, ptr %8, align 4
  %73 = call zeroext i8 @tvb_get_uint8(ptr noundef %70, i32 noundef %71)
  %74 = zext i8 %73 to i64
  store i64 %74, ptr %16, align 8
  %75 = load i64, ptr %16, align 8
  %76 = and i64 %75, 127
  %77 = load i32, ptr %15, align 4
  %78 = mul i32 %77, 7
  %79 = zext i32 %78 to i64
  %80 = shl i64 %76, %79
  %81 = load ptr, ptr %10, align 8
  %82 = load i64, ptr %81, align 8
  %83 = or i64 %82, %80
  store i64 %83, ptr %81, align 8
  %84 = load i64, ptr %16, align 8
  %85 = icmp ult i64 %84, 128
  br i1 %85, label %86, label %100

86:                                               ; preds = %69
  %87 = load ptr, ptr %10, align 8
  %88 = load i64, ptr %87, align 8
  %89 = lshr i64 %88, 1
  %90 = load ptr, ptr %10, align 8
  %91 = load i64, ptr %90, align 8
  %92 = and i64 %91, 1
  %93 = icmp ne i64 %92, 0
  %94 = select i1 %93, i32 -1, i32 0
  %95 = sext i32 %94 to i64
  %96 = xor i64 %89, %95
  %97 = load ptr, ptr %10, align 8
  store i64 %96, ptr %97, align 8
  %98 = load i32, ptr %15, align 4
  %99 = add i32 %98, 1
  store i32 %99, ptr %6, align 4
  store i32 1, ptr %14, align 4
  br label %105

100:                                              ; preds = %69
  br label %101

101:                                              ; preds = %100
  %102 = load i32, ptr %15, align 4
  %103 = add i32 %102, 1
  store i32 %103, ptr %15, align 4
  br label %60, !llvm.loop !35

104:                                              ; preds = %67
  store i32 2, ptr %14, align 4
  br label %105

105:                                              ; preds = %104, %86
  call void @llvm.lifetime.end.p0(i64 8, ptr %16) #16
  call void @llvm.lifetime.end.p0(i64 4, ptr %15) #16
  %106 = load i32, ptr %14, align 4
  switch i32 %106, label %190 [
    i32 1, label %188
    i32 2, label %187
  ]

107:                                              ; preds = %5
  call void @llvm.lifetime.start.p0(i64 4, ptr %17) #16
  call void @llvm.lifetime.start.p0(i64 8, ptr %18) #16
  store i32 0, ptr %17, align 4
  br label %108

108:                                              ; preds = %145, %107
  %109 = load i32, ptr %17, align 4
  %110 = icmp ult i32 %109, 10
  br i1 %110, label %111, label %115

111:                                              ; preds = %108
  %112 = load i32, ptr %17, align 4
  %113 = load i32, ptr %9, align 4
  %114 = icmp ult i32 %112, %113
  br label %115

115:                                              ; preds = %111, %108
  %116 = phi i1 [ false, %108 ], [ %114, %111 ]
  br i1 %116, label %117, label %148

117:                                              ; preds = %115
  %118 = load ptr, ptr %7, align 8
  %119 = load i32, ptr %8, align 4
  %120 = add i32 %119, 1
  store i32 %120, ptr %8, align 4
  %121 = call zeroext i8 @tvb_get_uint8(ptr noundef %118, i32 noundef %119)
  %122 = zext i8 %121 to i64
  store i64 %122, ptr %18, align 8
  %123 = load i32, ptr %17, align 4
  %124 = icmp eq i32 %123, 9
  br i1 %124, label %125, label %130

125:                                              ; preds = %117
  %126 = load ptr, ptr %10, align 8
  %127 = load i64, ptr %126, align 8
  %128 = icmp uge i64 %127, 144115188075855872
  br i1 %128, label %129, label %130

129:                                              ; preds = %125
  store i32 0, ptr %6, align 4
  store i32 1, ptr %14, align 4
  br label %149

130:                                              ; preds = %125, %117
  %131 = load ptr, ptr %10, align 8
  %132 = load i64, ptr %131, align 8
  %133 = shl i64 %132, 7
  store i64 %133, ptr %131, align 8
  %134 = load i64, ptr %18, align 8
  %135 = and i64 %134, 127
  %136 = load ptr, ptr %10, align 8
  %137 = load i64, ptr %136, align 8
  %138 = or i64 %137, %135
  store i64 %138, ptr %136, align 8
  %139 = load i64, ptr %18, align 8
  %140 = icmp ult i64 %139, 128
  br i1 %140, label %141, label %144

141:                                              ; preds = %130
  %142 = load i32, ptr %17, align 4
  %143 = add i32 %142, 1
  store i32 %143, ptr %6, align 4
  store i32 1, ptr %14, align 4
  br label %149

144:                                              ; preds = %130
  br label %145

145:                                              ; preds = %144
  %146 = load i32, ptr %17, align 4
  %147 = add i32 %146, 1
  store i32 %147, ptr %17, align 4
  br label %108, !llvm.loop !36

148:                                              ; preds = %115
  store i32 2, ptr %14, align 4
  br label %149

149:                                              ; preds = %148, %141, %129
  call void @llvm.lifetime.end.p0(i64 8, ptr %18) #16
  call void @llvm.lifetime.end.p0(i64 4, ptr %17) #16
  %150 = load i32, ptr %14, align 4
  switch i32 %150, label %190 [
    i32 1, label %188
    i32 2, label %187
  ]

151:                                              ; preds = %5
  %152 = load ptr, ptr %7, align 8
  %153 = load i32, ptr %8, align 4
  %154 = call zeroext i8 @tvb_get_uint8(ptr noundef %152, i32 noundef %153)
  %155 = zext i8 %154 to i64
  %156 = load ptr, ptr %10, align 8
  store i64 %155, ptr %156, align 8
  %157 = load ptr, ptr %10, align 8
  %158 = load i64, ptr %157, align 8
  %159 = lshr i64 %158, 6
  switch i64 %159, label %185 [
    i64 0, label %160
    i64 1, label %164
    i64 2, label %172
    i64 3, label %179
  ]

160:                                              ; preds = %151
  %161 = load ptr, ptr %10, align 8
  %162 = load i64, ptr %161, align 8
  %163 = and i64 %162, 63
  store i64 %163, ptr %161, align 8
  store i32 1, ptr %6, align 4
  br label %188

164:                                              ; preds = %151
  %165 = load ptr, ptr %7, align 8
  %166 = load i32, ptr %8, align 4
  %167 = call zeroext i16 @tvb_get_ntohs(ptr noundef %165, i32 noundef %166)
  %168 = zext i16 %167 to i32
  %169 = and i32 %168, 16383
  %170 = sext i32 %169 to i64
  %171 = load ptr, ptr %10, align 8
  store i64 %170, ptr %171, align 8
  store i32 2, ptr %6, align 4
  br label %188

172:                                              ; preds = %151
  %173 = load ptr, ptr %7, align 8
  %174 = load i32, ptr %8, align 4
  %175 = call i32 @tvb_get_ntohl(ptr noundef %173, i32 noundef %174)
  %176 = and i32 %175, 1073741823
  %177 = zext i32 %176 to i64
  %178 = load ptr, ptr %10, align 8
  store i64 %177, ptr %178, align 8
  store i32 4, ptr %6, align 4
  br label %188

179:                                              ; preds = %151
  %180 = load ptr, ptr %7, align 8
  %181 = load i32, ptr %8, align 4
  %182 = call i64 @tvb_get_ntoh64(ptr noundef %180, i32 noundef %181)
  %183 = and i64 %182, 4611686018427387903
  %184 = load ptr, ptr %10, align 8
  store i64 %183, ptr %184, align 8
  store i32 8, ptr %6, align 4
  br label %188

185:                                              ; preds = %151
  call void (ptr, i32, ptr, i64, ptr, ptr, ...) @ws_log_fatal_full(ptr noundef @.str.27, i32 noundef 7, ptr noundef @.str.1, i64 noundef 4867, ptr noundef @__func__.tvb_get_varint, ptr noundef @.str.29) #18
  unreachable

186:                                              ; preds = %5
  call void (ptr, ...) @proto_report_dissector_bug(ptr noundef @.str.9, ptr noundef @.str.1, i32 noundef 4874) #18
  unreachable

187:                                              ; preds = %149, %105, %57
  store i32 0, ptr %6, align 4
  br label %188

188:                                              ; preds = %187, %179, %172, %164, %160, %149, %105, %57
  %189 = load i32, ptr %6, align 4
  ret i32 %189

190:                                              ; preds = %149, %105, %57
  unreachable
}