; Function Attrs: null_pointer_is_valid sspstrong uwtable
define range(i32 0, 11) i32 @tvb_get_varint(ptr noundef %0, i32 noundef %1, i32 noundef %2, ptr noundef captures(none) initializes((0, 8)) %3, i32 noundef %4) local_unnamed_addr #0 {
  store i64 0, ptr %3, align 8
  %6 = and i32 %4, 30
  %7 = add nsw i32 %6, -2
  %8 = lshr exact i32 %7, 1
  switch i32 %8, label %116 [
    i32 0, label %.preheader
    i32 3, label %.preheader94
    i32 7, label %.preheader96
    i32 1, label %52
  ]

.preheader96:                                     ; preds = %5
  %invariant.umin = tail call i32 @llvm.umin.i32(i32 %2, i32 10)
  %.not = icmp eq i32 %2, 0
  br i1 %.not, label %.thread79, label %.lr.ph

.preheader94:                                     ; preds = %5
  %.not112 = icmp eq i32 %2, 0
  br i1 %.not112, label %.thread79, label %.lr.ph107.preheader

.lr.ph107.preheader:                              ; preds = %.preheader94
  %invariant.umin104 = tail call i32 @llvm.umin.i32(i32 %2, i32 10)
  %wide.trip.count = zext nneg i32 %invariant.umin104 to i64
  br label %.lr.ph107

.preheader:                                       ; preds = %5
  %.not113 = icmp eq i32 %2, 0
  br i1 %.not113, label %.thread79, label %.lr.ph111.preheader

.lr.ph111.preheader:                              ; preds = %.preheader
  %invariant.umin108 = tail call i32 @llvm.umin.i32(i32 %2, i32 10)
  %wide.trip.count125 = zext nneg i32 %invariant.umin108 to i64
  br label %.lr.ph111

.lr.ph111:                                        ; preds = %.lr.ph111.preheader, %20
  %indvars.iv122 = phi i64 [ 0, %.lr.ph111.preheader ], [ %indvars.iv.next123, %20 ]
  %.058110 = phi i32 [ %1, %.lr.ph111.preheader ], [ %21, %20 ]
  %9 = tail call fastcc ptr @fast_ensure_contiguous(ptr noundef %0, i32 noundef %.058110, i32 noundef 1)
  %10 = load i8, ptr %9, align 1
  %11 = and i8 %10, 127
  %12 = zext nneg i8 %11 to i64
  %13 = mul nuw nsw i64 %indvars.iv122, 7
  %14 = shl i64 %12, %13
  %15 = load i64, ptr %3, align 8
  %16 = or i64 %14, %15
  store i64 %16, ptr %3, align 8
  %17 = icmp sgt i8 %10, -1
  br i1 %17, label %.thread, label %20

.thread:                                          ; preds = %.lr.ph111
  %18 = trunc nuw nsw i64 %indvars.iv122 to i32
  %19 = add nuw nsw i32 %18, 1
  br label %.thread79

20:                                               ; preds = %.lr.ph111
  %21 = add i32 %.058110, 1
  %indvars.iv.next123 = add nuw nsw i64 %indvars.iv122, 1
  %exitcond126.not = icmp eq i64 %indvars.iv.next123, %wide.trip.count125
  br i1 %exitcond126.not, label %.thread79, label %.lr.ph111, !llvm.loop !35

.lr.ph107:                                        ; preds = %.lr.ph107.preheader, %37
  %indvars.iv = phi i64 [ 0, %.lr.ph107.preheader ], [ %indvars.iv.next, %37 ]
  %.159106 = phi i32 [ %1, %.lr.ph107.preheader ], [ %38, %37 ]
  %22 = tail call fastcc ptr @fast_ensure_contiguous(ptr noundef %0, i32 noundef %.159106, i32 noundef 1)
  %23 = load i8, ptr %22, align 1
  %24 = and i8 %23, 127
  %25 = zext nneg i8 %24 to i64
  %26 = mul nuw nsw i64 %indvars.iv, 7
  %27 = shl i64 %25, %26
  %28 = load i64, ptr %3, align 8
  %29 = or i64 %27, %28
  store i64 %29, ptr %3, align 8
  %30 = icmp sgt i8 %23, -1
  br i1 %30, label %.thread74, label %37

.thread74:                                        ; preds = %.lr.ph107
  %31 = trunc nuw nsw i64 %indvars.iv to i32
  %32 = lshr i64 %29, 1
  %33 = and i64 %29, 1
  %34 = sub nsw i64 0, %33
  %35 = xor i64 %32, %34
  store i64 %35, ptr %3, align 8
  %36 = add nuw nsw i32 %31, 1
  br label %.thread79

37:                                               ; preds = %.lr.ph107
  %38 = add i32 %.159106, 1
  %indvars.iv.next = add nuw nsw i64 %indvars.iv, 1
  %exitcond121.not = icmp eq i64 %indvars.iv.next, %wide.trip.count
  br i1 %exitcond121.not, label %.thread79, label %.lr.ph107, !llvm.loop !36

.lr.ph:                                           ; preds = %.preheader96, %51
  %.057102 = phi i32 [ %50, %51 ], [ 0, %.preheader96 ]
  %.260101 = phi i32 [ %39, %51 ], [ %1, %.preheader96 ]
  %39 = add i32 %.260101, 1
  %40 = tail call fastcc ptr @fast_ensure_contiguous(ptr noundef %0, i32 noundef %.260101, i32 noundef 1)
  %41 = icmp eq i32 %.057102, 9
  %.pre = load i64, ptr %3, align 8
  %42 = icmp ugt i64 %.pre, 144115188075855871
  %or.cond = select i1 %41, i1 %42, i1 false
  br i1 %or.cond, label %.thread79, label %43

43:                                               ; preds = %.lr.ph
  %44 = load i8, ptr %40, align 1
  %45 = shl i64 %.pre, 7
  %46 = and i8 %44, 127
  %47 = zext nneg i8 %46 to i64
  %48 = or disjoint i64 %45, %47
  store i64 %48, ptr %3, align 8
  %49 = icmp sgt i8 %44, -1
  %50 = add nuw nsw i32 %.057102, 1
  br i1 %49, label %.thread79, label %51

51:                                               ; preds = %43
  %exitcond.not = icmp eq i32 %50, %invariant.umin
  br i1 %exitcond.not, label %.thread79, label %.lr.ph, !llvm.loop !37

52:                                               ; preds = %5
  %53 = tail call fastcc ptr @fast_ensure_contiguous(ptr noundef %0, i32 noundef %1, i32 noundef 1)
  %54 = load i8, ptr %53, align 1
  %55 = zext i8 %54 to i64
  store i64 %55, ptr %3, align 8
  %56 = lshr i64 %55, 6
  switch i64 %56, label %default.unreachable127 [
    i64 0, label %57
    i64 1, label %59
    i64 2, label %66
    i64 3, label %83
  ]

57:                                               ; preds = %52
  %58 = and i64 %55, 63
  store i64 %58, ptr %3, align 8
  br label %.thread79

59:                                               ; preds = %52
  %60 = tail call fastcc ptr @fast_ensure_contiguous(ptr noundef %0, i32 noundef %1, i32 noundef 2)
  %.val.i = load i8, ptr %60, align 1
  %61 = getelementptr i8, ptr %60, i64 1
  %.val2.i = load i8, ptr %61, align 1
  %62 = zext i8 %.val.i to i64
  %63 = shl nuw nsw i64 %62, 8
  %64 = zext i8 %.val2.i to i64
  %.masked93 = and i64 %63, 16128
  %65 = or disjoint i64 %.masked93, %64
  store i64 %65, ptr %3, align 8
  br label %.thread79

66:                                               ; preds = %52
  %67 = tail call fastcc ptr @fast_ensure_contiguous(ptr noundef %0, i32 noundef %1, i32 noundef 4)
  %68 = load i8, ptr %67, align 1
  %69 = zext i8 %68 to i64
  %70 = shl nuw nsw i64 %69, 24
  %71 = getelementptr i8, ptr %67, i64 1
  %72 = load i8, ptr %71, align 1
  %73 = zext i8 %72 to i64
  %74 = shl nuw nsw i64 %73, 16
  %75 = getelementptr i8, ptr %67, i64 2
  %76 = load i8, ptr %75, align 1
  %77 = zext i8 %76 to i64
  %78 = shl nuw nsw i64 %77, 8
  %79 = getelementptr i8, ptr %67, i64 3
  %80 = load i8, ptr %79, align 1
  %81 = zext i8 %80 to i64
  %.masked92 = and i64 %70, 1056964608
  %.masked91 = or disjoint i64 %74, %.masked92
  %.masked90 = or disjoint i64 %.masked91, %78
  %82 = or disjoint i64 %.masked90, %81
  store i64 %82, ptr %3, align 8
  br label %.thread79

83:                                               ; preds = %52
  %84 = tail call fastcc ptr @fast_ensure_contiguous(ptr noundef %0, i32 noundef %1, i32 noundef 8)
  %85 = load i8, ptr %84, align 1
  %86 = zext i8 %85 to i64
  %87 = shl nuw i64 %86, 56
  %88 = getelementptr i8, ptr %84, i64 1
  %89 = load i8, ptr %88, align 1
  %90 = zext i8 %89 to i64
  %91 = shl nuw nsw i64 %90, 48
  %92 = getelementptr i8, ptr %84, i64 2
  %93 = load i8, ptr %92, align 1
  %94 = zext i8 %93 to i64
  %95 = shl nuw nsw i64 %94, 40
  %96 = getelementptr i8, ptr %84, i64 3
  %97 = load i8, ptr %96, align 1
  %98 = zext i8 %97 to i64
  %99 = shl nuw nsw i64 %98, 32
  %100 = getelementptr i8, ptr %84, i64 4
  %101 = load i8, ptr %100, align 1
  %102 = zext i8 %101 to i64
  %103 = shl nuw nsw i64 %102, 24
  %104 = getelementptr i8, ptr %84, i64 5
  %105 = load i8, ptr %104, align 1
  %106 = zext i8 %105 to i64
  %107 = shl nuw nsw i64 %106, 16
  %108 = getelementptr i8, ptr %84, i64 6
  %109 = load i8, ptr %108, align 1
  %110 = zext i8 %109 to i64
  %111 = shl nuw nsw i64 %110, 8
  %112 = getelementptr i8, ptr %84, i64 7
  %113 = load i8, ptr %112, align 1
  %114 = zext i8 %113 to i64
  %.masked89 = and i64 %87, 4539628424389459968
  %.masked88 = or disjoint i64 %91, %.masked89
  %.masked87 = or disjoint i64 %.masked88, %95
  %.masked86 = or disjoint i64 %.masked87, %99
  %.masked85 = or disjoint i64 %.masked86, %103
  %.masked84 = or disjoint i64 %.masked85, %107
  %.masked = or disjoint i64 %.masked84, %111
  %115 = or i64 %.masked, %114
  store i64 %115, ptr %3, align 8
  br label %.thread79

116:                                              ; preds = %5
  tail call void (ptr, ...) @proto_report_dissector_bug(ptr noundef nonnull @.str.9, ptr noundef nonnull @.str.1, i32 noundef 4874) #18
  unreachable

.thread79:                                        ; preds = %51, %.lr.ph, %43, %37, %20, %.preheader96, %.preheader94, %.preheader, %.thread74, %.thread, %83, %66, %59, %57
  %.1 = phi i32 [ 8, %83 ], [ 4, %66 ], [ 2, %59 ], [ 1, %57 ], [ %19, %.thread ], [ %36, %.thread74 ], [ 0, %.preheader ], [ 0, %.preheader94 ], [ 0, %.preheader96 ], [ 0, %20 ], [ 0, %37 ], [ 0, %51 ], [ 0, %.lr.ph ], [ %50, %43 ]
  ret i32 %.1

default.unreachable127:                           ; preds = %52
  unreachable
}